target datalayout = "e-m:e-p270:32:32-p271:32:32-p272:64:64-i64:64-i128:128-f80:128-n8:16:32:64-S128"
target triple = "x86_64-pc-linux-gnu"

%"class.cv::Size_" = type { i32, i32 }
%"class.cv::hfloat" = type { i16 }
%union.Cv32suf = type { i32 }

; Function Attrs: inlinehint mustprogress nounwind uwtable
define internal noundef double @_ZN2cvL13saturate_castIdEET_d(double noundef %0) #4 {
  %2 = alloca double, align 8
  store double %0, ptr %2, align 8, !tbaa !16
  %3 = load double, ptr %2, align 8, !tbaa !16
  ret double %3
}

; Function Attrs: mustprogress nounwind uwtable
define linkonce_odr hidden noundef float @_ZNK2cv6hfloatcvfEv(ptr noundef nonnull align 2 dereferenceable(2) %0) #0 comdat align 2 {
  %2 = alloca ptr, align 8
  %3 = alloca %union.Cv32suf, align 4
  %4 = alloca i32, align 4
  %5 = alloca i32, align 4
  %6 = alloca i32, align 4
  store ptr %0, ptr %2, align 8, !tbaa !24
  %7 = load ptr, ptr %2, align 8
  call void @llvm.lifetime.start.p0(i64 4, ptr %3) #17
  call void @llvm.lifetime.start.p0(i64 4, ptr %4) #17
  %8 = getelementptr inbounds nuw %"class.cv::hfloat", ptr %7, i32 0, i32 0
  %9 = load i16, ptr %8, align 2, !tbaa !106
  %10 = zext i16 %9 to i32
  %11 = and i32 %10, 32767
  %12 = shl i32 %11, 13
  %13 = add nsw i32 %12, 939524096
  store i32 %13, ptr %4, align 4, !tbaa !3
  call void @llvm.lifetime.start.p0(i64 4, ptr %5) #17
  %14 = getelementptr inbounds nuw %"class.cv::hfloat", ptr %7, i32 0, i32 0
  %15 = load i16, ptr %14, align 2, !tbaa !106
  %16 = zext i16 %15 to i32
  %17 = and i32 %16, 32768
  %18 = shl i32 %17, 16
  store i32 %18, ptr %5, align 4, !tbaa !3
  call void @llvm.lifetime.start.p0(i64 4, ptr %6) #17
  %19 = getelementptr inbounds nuw %"class.cv::hfloat", ptr %7, i32 0, i32 0
  %20 = load i16, ptr %19, align 2, !tbaa !106
  %21 = zext i16 %20 to i32
  %22 = and i32 %21, 31744
  store i32 %22, ptr %6, align 4, !tbaa !3
  %23 = load i32, ptr %4, align 4, !tbaa !3
  %24 = add i32 %23, 8388608
  store i32 %24, ptr %3, align 4, !tbaa !73
  %25 = load i32, ptr %6, align 4, !tbaa !3
  %26 = icmp uge i32 %25, 31744
  br i1 %26, label %27, label %30

27:                                               ; preds = %1
  %28 = load i32, ptr %4, align 4, !tbaa !3
  %29 = add i32 %28, 939524096
  br label %41

30:                                               ; preds = %1
  %31 = load i32, ptr %6, align 4, !tbaa !3
  %32 = icmp eq i32 %31, 0
  br i1 %32, label %33, label %37

33:                                               ; preds = %30
  %34 = load float, ptr %3, align 4, !tbaa !73
  %35 = fsub float %34, 0x3F10000000000000
  store float %35, ptr %3, align 4, !tbaa !73
  %36 = load i32, ptr %3, align 4, !tbaa !73
  br label %39

37:                                               ; preds = %30
  %38 = load i32, ptr %4, align 4, !tbaa !3
  br label %39

39:                                               ; preds = %37, %33
  %40 = phi i32 [ %36, %33 ], [ %38, %37 ]
  br label %41

41:                                               ; preds = %39, %27
  %42 = phi i32 [ %29, %27 ], [ %40, %39 ]
  %43 = load i32, ptr %5, align 4, !tbaa !3
  %44 = or i32 %42, %43
  store i32 %44, ptr %3, align 4, !tbaa !73
  %45 = load float, ptr %3, align 4, !tbaa !73
  call void @llvm.lifetime.end.p0(i64 4, ptr %6) #17
  call void @llvm.lifetime.end.p0(i64 4, ptr %5) #17
  call void @llvm.lifetime.end.p0(i64 4, ptr %4) #17
  call void @llvm.lifetime.end.p0(i64 4, ptr %3) #17
  ret float %45
}

; Function Attrs: inlinehint mustprogress nounwind uwtable
define linkonce_odr hidden void @_ZN2cv12cpu_baseline7cvt_64fINS_6hfloatEdEEvPKT_mPT0_mNS_5Size_IiEEdd(ptr noundef %0, i64 noundef %1, ptr noundef %2, i64 noundef %3, i64 %4, double noundef %5, double noundef %6) #4 comdat {
  %8 = alloca %"class.cv::Size_", align 4
  %9 = alloca ptr, align 8
  %10 = alloca i64, align 8
  %11 = alloca ptr, align 8
  %12 = alloca i64, align 8
  %13 = alloca double, align 8
  %14 = alloca double, align 8
  %15 = alloca i32, align 4
  %16 = alloca i32, align 4
  store i64 %4, ptr %8, align 4
  store ptr %0, ptr %9, align 8, !tbaa !24
  store i64 %1, ptr %10, align 8, !tbaa !11
  store ptr %2, ptr %11, align 8, !tbaa !13
  store i64 %3, ptr %12, align 8, !tbaa !11
  store double %5, ptr %13, align 8, !tbaa !16
  store double %6, ptr %14, align 8, !tbaa !16
  %17 = load i64, ptr %10, align 8, !tbaa !11
  %18 = udiv i64 %17, 2
  store i64 %18, ptr %10, align 8, !tbaa !11
  %19 = load i64, ptr %12, align 8, !tbaa !11
  %20 = udiv i64 %19, 8
  store i64 %20, ptr %12, align 8, !tbaa !11
  call void @llvm.lifetime.start.p0(i64 4, ptr %15) #17
  store i32 0, ptr %15, align 4, !tbaa !3
  br label %21

21:                                               ; preds = %52, %7
  %22 = load i32, ptr %15, align 4, !tbaa !3
  %23 = getelementptr inbounds nuw %"class.cv::Size_", ptr %8, i32 0, i32 1
  %24 = load i32, ptr %23, align 4, !tbaa !70
  %25 = icmp slt i32 %22, %24
  br i1 %25, label %27, label %26

26:                                               ; preds = %21
  call void @llvm.lifetime.end.p0(i64 4, ptr %15) #17
  br label %61

27:                                               ; preds = %21
  call void @llvm.lifetime.start.p0(i64 4, ptr %16) #17
  store i32 0, ptr %16, align 4, !tbaa !3
  br label %28

28:                                               ; preds = %48, %27
  %29 = load i32, ptr %16, align 4, !tbaa !3
  %30 = getelementptr inbounds nuw %"class.cv::Size_", ptr %8, i32 0, i32 0
  %31 = load i32, ptr %30, align 4, !tbaa !69
  %32 = icmp slt i32 %29, %31
  br i1 %32, label %33, label %51

33:                                               ; preds = %28
  %34 = load ptr, ptr %9, align 8, !tbaa !24
  %35 = load i32, ptr %16, align 4, !tbaa !3
  %36 = sext i32 %35 to i64
  %37 = getelementptr inbounds %"class.cv::hfloat", ptr %34, i64 %36
  %38 = call noundef float @_ZNK2cv6hfloatcvfEv(ptr noundef nonnull align 2 dereferenceable(2) %37)
  %39 = fpext float %38 to double
  %40 = load double, ptr %13, align 8, !tbaa !16
  %41 = load double, ptr %14, align 8, !tbaa !16
  %42 = call double @llvm.fmuladd.f64(double %39, double %40, double %41)
  %43 = call noundef double @_ZN2cvL13saturate_castIdEET_d(double noundef %42)
  %44 = load ptr, ptr %11, align 8, !tbaa !13
  %45 = load i32, ptr %16, align 4, !tbaa !3
  %46 = sext i32 %45 to i64
  %47 = getelementptr inbounds double, ptr %44, i64 %46
  store double %43, ptr %47, align 8, !tbaa !16
  br label %48

48:                                               ; preds = %33
  %49 = load i32, ptr %16, align 4, !tbaa !3
  %50 = add nsw i32 %49, 1
  store i32 %50, ptr %16, align 4, !tbaa !3
  br label %28, !llvm.loop !202

51:                                               ; preds = %28
  call void @llvm.lifetime.end.p0(i64 4, ptr %16) #17
  br label %52

52:                                               ; preds = %51
  %53 = load i32, ptr %15, align 4, !tbaa !3
  %54 = add nsw i32 %53, 1
  store i32 %54, ptr %15, align 4, !tbaa !3
  %55 = load i64, ptr %10, align 8, !tbaa !11
  %56 = load ptr, ptr %9, align 8, !tbaa !24
  %57 = getelementptr inbounds nuw %"class.cv::hfloat", ptr %56, i64 %55
  store ptr %57, ptr %9, align 8, !tbaa !24
  %58 = load i64, ptr %12, align 8, !tbaa !11
  %59 = load ptr, ptr %11, align 8, !tbaa !13
  %60 = getelementptr inbounds nuw double, ptr %59, i64 %58
  store ptr %60, ptr %11, align 8, !tbaa !13
  br label %21, !llvm.loop !203

61:                                               ; preds = %26
  ret void
}

; Function Attrs: mustprogress uwtable
define internal void @_ZN2cv12cpu_baselineL14cvtScale16f64fEPKhmS2_mPhmNS_5Size_IiEEPv(ptr noundef %0, i64 noundef %1, ptr noundef %2, i64 noundef %3, ptr noundef %4, i64 noundef %5, i64 %6, ptr noundef %7) #1 {
  %9 = alloca %"class.cv::Size_", align 4
  %10 = alloca ptr, align 8
  %11 = alloca i64, align 8
  %12 = alloca ptr, align 8
  %13 = alloca i64, align 8
  %14 = alloca ptr, align 8
  %15 = alloca i64, align 8
  %16 = alloca ptr, align 8
  %17 = alloca ptr, align 8
  %18 = alloca ptr, align 8
  %19 = alloca ptr, align 8
  %20 = alloca %"class.cv::Size_", align 4
  store i64 %6, ptr %9, align 4
  store ptr %0, ptr %10, align 8, !tbaa !9
  store i64 %1, ptr %11, align 8, !tbaa !11
  store ptr %2, ptr %12, align 8, !tbaa !9
  store i64 %3, ptr %13, align 8, !tbaa !11
  store ptr %4, ptr %14, align 8, !tbaa !9
  store i64 %5, ptr %15, align 8, !tbaa !11
  store ptr %7, ptr %16, align 8, !tbaa !7
  call void @llvm.lifetime.start.p0(i64 8, ptr %17) #17
  %21 = load ptr, ptr %10, align 8, !tbaa !9
  store ptr %21, ptr %17, align 8, !tbaa !24
  call void @llvm.lifetime.start.p0(i64 8, ptr %18) #17
  %22 = load ptr, ptr %14, align 8, !tbaa !9
  store ptr %22, ptr %18, align 8, !tbaa !13
  call void @llvm.lifetime.start.p0(i64 8, ptr %19) #17
  %23 = load ptr, ptr %16, align 8, !tbaa !7
  store ptr %23, ptr %19, align 8, !tbaa !13
  %24 = load ptr, ptr %17, align 8, !tbaa !24
  %25 = load i64, ptr %11, align 8, !tbaa !11
  %26 = load ptr, ptr %18, align 8, !tbaa !13
  %27 = load i64, ptr %15, align 8, !tbaa !11
  call void @llvm.memcpy.p0.p0.i64(ptr align 4 %20, ptr align 4 %9, i64 8, i1 false), !tbaa.struct !15
  %28 = load ptr, ptr %19, align 8, !tbaa !13
  %29 = getelementptr inbounds double, ptr %28, i64 0
  %30 = load double, ptr %29, align 8, !tbaa !16
  %31 = load ptr, ptr %19, align 8, !tbaa !13
  %32 = getelementptr inbounds double, ptr %31, i64 1
  %33 = load double, ptr %32, align 8, !tbaa !16
  %34 = load i64, ptr %20, align 4
  call void @_ZN2cv12cpu_baseline7cvt_64fINS_6hfloatEdEEvPKT_mPT0_mNS_5Size_IiEEdd(ptr noundef %24, i64 noundef %25, ptr noundef %26, i64 noundef %27, i64 %34, double noundef %30, double noundef %33)
  call void @llvm.lifetime.end.p0(i64 8, ptr %19) #17
  call void @llvm.lifetime.end.p0(i64 8, ptr %18) #17
  call void @llvm.lifetime.end.p0(i64 8, ptr %17) #17
  ret void
}