; Function Attrs: mustprogress nofree norecurse nosync nounwind memory(argmem: readwrite) uwtable
define internal void @_ZN2cv12cpu_baselineL14cvtScale16f64fEPKhmS2_mPhmNS_5Size_IiEEPv(ptr noundef readonly captures(none) %0, i64 noundef %1, ptr readnone captures(none) %2, i64 %3, ptr noundef writeonly captures(none) %4, i64 noundef %5, i64 %6, ptr noundef readonly captures(none) %7) #2 {
  %9 = load double, ptr %7, align 8, !tbaa !7
  %10 = getelementptr inbounds nuw i8, ptr %7, i64 8
  %11 = load double, ptr %10, align 8, !tbaa !7
  %.sroa.2.0.extract.shift.i = lshr i64 %6, 32
  %.sroa.2.0.extract.trunc.i = trunc nuw i64 %.sroa.2.0.extract.shift.i to i32
  %12 = lshr i64 %1, 1
  %13 = lshr i64 %5, 3
  %14 = icmp sgt i32 %.sroa.2.0.extract.trunc.i, 0
  %.sroa.0.0.extract.trunc.i = trunc i64 %6 to i32
  %15 = icmp sgt i32 %.sroa.0.0.extract.trunc.i, 0
  %or.cond.i = and i1 %15, %14
  br i1 %or.cond.i, label %.preheader.us.preheader.i, label %_ZN2cv12cpu_baseline7cvt_64fINS_6hfloatEdEEvPKT_mPT0_mNS_5Size_IiEEdd.exit

.preheader.us.preheader.i:                        ; preds = %8
  %wide.trip.count.i = and i64 %6, 2147483647
  br label %.preheader.us.i

.preheader.us.i:                                  ; preds = %._crit_edge.us.i, %.preheader.us.preheader.i
  %.01521.us.i = phi i32 [ %38, %._crit_edge.us.i ], [ 0, %.preheader.us.preheader.i ]
  %.01620.us.i = phi ptr [ %39, %._crit_edge.us.i ], [ %0, %.preheader.us.preheader.i ]
  %.01719.us.i = phi ptr [ %40, %._crit_edge.us.i ], [ %4, %.preheader.us.preheader.i ]
  br label %16

16:                                               ; preds = %_ZNK2cv6hfloatcvfEv.exit.us.i, %.preheader.us.i
  %indvars.iv.i = phi i64 [ 0, %.preheader.us.i ], [ %indvars.iv.next.i, %_ZNK2cv6hfloatcvfEv.exit.us.i ]
  %17 = getelementptr inbounds nuw %"class.cv::hfloat", ptr %.01620.us.i, i64 %indvars.iv.i
  %18 = load i16, ptr %17, align 2, !tbaa !45
  %19 = zext i16 %18 to i32
  %20 = shl nuw nsw i32 %19, 13
  %21 = and i32 %20, 268427264
  %22 = add nuw nsw i32 %21, 939524096
  %23 = and i32 %19, 31744
  switch i32 %23, label %_ZNK2cv6hfloatcvfEv.exit.us.i [
    i32 31744, label %29
    i32 0, label %24
  ]

24:                                               ; preds = %16
  %25 = add nuw nsw i32 %21, 947912704
  %26 = bitcast i32 %25 to float
  %27 = fadd float %26, 0xBF10000000000000
  %28 = bitcast float %27 to i32
  br label %_ZNK2cv6hfloatcvfEv.exit.us.i

29:                                               ; preds = %16
  %30 = or i32 %20, 1879048192
  br label %_ZNK2cv6hfloatcvfEv.exit.us.i

_ZNK2cv6hfloatcvfEv.exit.us.i:                    ; preds = %29, %24, %16
  %31 = phi i32 [ %30, %29 ], [ %28, %24 ], [ %22, %16 ]
  %.signext.i.us.i = sext i16 %18 to i32
  %32 = and i32 %.signext.i.us.i, -2147483648
  %33 = or i32 %31, %32
  %34 = bitcast i32 %33 to float
  %35 = fpext float %34 to double
  %36 = tail call double @llvm.fmuladd.f64(double %35, double %9, double %11)
  %37 = getelementptr inbounds nuw double, ptr %.01719.us.i, i64 %indvars.iv.i
  store double %36, ptr %37, align 8, !tbaa !7
  %indvars.iv.next.i = add nuw nsw i64 %indvars.iv.i, 1
  %exitcond.not.i = icmp eq i64 %indvars.iv.next.i, %wide.trip.count.i
  br i1 %exitcond.not.i, label %._crit_edge.us.i, label %16, !llvm.loop !143

._crit_edge.us.i:                                 ; preds = %_ZNK2cv6hfloatcvfEv.exit.us.i
  %38 = add nuw nsw i32 %.01521.us.i, 1
  %39 = getelementptr inbounds nuw %"class.cv::hfloat", ptr %.01620.us.i, i64 %12
  %40 = getelementptr inbounds nuw double, ptr %.01719.us.i, i64 %13
  %exitcond25.not.i = icmp eq i32 %38, %.sroa.2.0.extract.trunc.i
  br i1 %exitcond25.not.i, label %_ZN2cv12cpu_baseline7cvt_64fINS_6hfloatEdEEvPKT_mPT0_mNS_5Size_IiEEdd.exit, label %.preheader.us.i, !llvm.loop !144

_ZN2cv12cpu_baseline7cvt_64fINS_6hfloatEdEEvPKT_mPT0_mNS_5Size_IiEEdd.exit: ; preds = %._crit_edge.us.i, %8
  ret void
}